target datalayout = "e-m:e-p270:32:32-p271:32:32-p272:64:64-i64:64-i128:128-f80:128-n8:16:32:64-S128"
target triple = "x86_64-pc-linux-gnu"

%"class.llvm::APInt" = type <{ %union.anon, i32, [4 x i8] }>
%union.anon = type { i64 }
%class.anon = type { ptr }

; Function Attrs: mustprogress nounwind uwtable
define linkonce_odr hidden noundef zeroext i1 @_ZNK4llvm5APInt12needsCleanupEv(ptr noundef nonnull align 8 dereferenceable(12) %0) #1 comdat align 2 {
  %2 = alloca ptr, align 8
  store ptr %0, ptr %2, align 8
  %3 = load ptr, ptr %2, align 8
  %4 = call noundef zeroext i1 @_ZNK4llvm5APInt12isSingleWordEv(ptr noundef nonnull align 8 dereferenceable(12) %3)
  %5 = xor i1 %4, true
  ret i1 %5
}

; Function Attrs: mustprogress nounwind uwtable
define linkonce_odr hidden noundef zeroext i1 @_ZNK4llvm5APInt12isSingleWordEv(ptr noundef nonnull align 8 dereferenceable(12) %0) #1 comdat align 2 {
  %2 = alloca ptr, align 8
  store ptr %0, ptr %2, align 8
  %3 = load ptr, ptr %2, align 8
  %4 = getelementptr inbounds nuw %"class.llvm::APInt", ptr %3, i32 0, i32 1
  %5 = load i32, ptr %4, align 8
  %6 = icmp ule i32 %5, 64
  ret i1 %6
}

; Function Attrs: mustprogress nounwind uwtable
define linkonce_odr hidden void @_ZN4llvm5APIntD2Ev(ptr noundef nonnull align 8 dereferenceable(12) %0) unnamed_addr #1 comdat align 2 {
  %2 = alloca ptr, align 8
  store ptr %0, ptr %2, align 8
  %3 = load ptr, ptr %2, align 8
  %4 = call noundef zeroext i1 @_ZNK4llvm5APInt12needsCleanupEv(ptr noundef nonnull align 8 dereferenceable(12) %3)
  br i1 %4, label %5, label %11

5:                                                ; preds = %1
  %6 = getelementptr inbounds nuw %"class.llvm::APInt", ptr %3, i32 0, i32 0
  %7 = load ptr, ptr %6, align 8
  %8 = icmp eq ptr %7, null
  br i1 %8, label %10, label %9

9:                                                ; preds = %5
  call void @_ZdaPv(ptr noundef %7) #15
  br label %10

10:                                               ; preds = %9, %5
  br label %11

11:                                               ; preds = %10, %1
  ret void
}

; Function Attrs: mustprogress nounwind uwtable
define linkonce_odr hidden noundef zeroext i1 @_ZNK4llvm5APInt6isZeroEv(ptr noundef nonnull align 8 dereferenceable(12) %0) #1 comdat align 2 {
  %2 = alloca i1, align 1
  %3 = alloca ptr, align 8
  store ptr %0, ptr %3, align 8
  %4 = load ptr, ptr %3, align 8
  %5 = call noundef zeroext i1 @_ZNK4llvm5APInt12isSingleWordEv(ptr noundef nonnull align 8 dereferenceable(12) %4)
  br i1 %5, label %6, label %10

6:                                                ; preds = %1
  %7 = getelementptr inbounds nuw %"class.llvm::APInt", ptr %4, i32 0, i32 0
  %8 = load i64, ptr %7, align 8
  %9 = icmp eq i64 %8, 0
  store i1 %9, ptr %2, align 1
  br label %15

10:                                               ; preds = %1
  %11 = call noundef i32 @_ZNK4llvm5APInt25countLeadingZerosSlowCaseEv(ptr noundef nonnull align 8 dereferenceable(12) %4) #14
  %12 = getelementptr inbounds nuw %"class.llvm::APInt", ptr %4, i32 0, i32 1
  %13 = load i32, ptr %12, align 8
  %14 = icmp eq i32 %11, %13
  store i1 %14, ptr %2, align 1
  br label %15

15:                                               ; preds = %10, %6
  %16 = load i1, ptr %2, align 1
  ret i1 %16
}

; Function Attrs: mustprogress nounwind uwtable
define internal noundef zeroext i1 @"_ZZL11simplifyRemN4llvm11Instruction9BinaryOpsEPNS_5ValueES3_RKNS_13SimplifyQueryEjENK3$_0clERKNS_5APIntE"(ptr noundef nonnull align 8 dereferenceable(8) %0, ptr noundef nonnull align 8 dereferenceable(12) %1) #1 align 2 {
  %3 = alloca ptr, align 8
  %4 = alloca ptr, align 8
  %5 = alloca %"class.llvm::APInt", align 8
  store ptr %0, ptr %3, align 8
  store ptr %1, ptr %4, align 8
  %6 = load ptr, ptr %3, align 8
  %7 = load ptr, ptr %4, align 8
  %8 = getelementptr inbounds nuw %class.anon, ptr %6, i32 0, i32 0
  %9 = load ptr, ptr %8, align 8
  call void @_ZNK4llvm5APInt4sremERKS0_(ptr dead_on_unwind writable sret(%"class.llvm::APInt") align 8 %5, ptr noundef nonnull align 8 dereferenceable(12) %7, ptr noundef nonnull align 8 dereferenceable(12) %9)
  %10 = call noundef zeroext i1 @_ZNK4llvm5APInt6isZeroEv(ptr noundef nonnull align 8 dereferenceable(12) %5)
  call void @_ZN4llvm5APIntD2Ev(ptr noundef nonnull align 8 dereferenceable(12) %5) #13
  ret i1 %10
}

; Function Attrs: mustprogress nounwind uwtable
define internal noundef zeroext i1 @"_ZN4llvm12function_refIFbRKNS_5APIntEEE11callback_fnIZL11simplifyRemNS_11Instruction9BinaryOpsEPNS_5ValueESA_RKNS_13SimplifyQueryEjE3$_0EEblS3_"(i64 noundef %0, ptr noundef nonnull align 8 dereferenceable(12) %1) #1 align 2 {
  %3 = alloca i64, align 8
  %4 = alloca ptr, align 8
  store i64 %0, ptr %3, align 8
  store ptr %1, ptr %4, align 8
  %5 = load i64, ptr %3, align 8
  %6 = inttoptr i64 %5 to ptr
  %7 = load ptr, ptr %4, align 8
  %8 = call noundef zeroext i1 @"_ZZL11simplifyRemN4llvm11Instruction9BinaryOpsEPNS_5ValueES3_RKNS_13SimplifyQueryEjENK3$_0clERKNS_5APIntE"(ptr noundef nonnull align 8 dereferenceable(8) %6, ptr noundef nonnull align 8 dereferenceable(12) %7)
  ret i1 %8
}