; Function Attrs: mustprogress nounwind uwtable
define internal noundef zeroext i1 @"_ZN4llvm12function_refIFbRKNS_5APIntEEE11callback_fnIZL11simplifyRemNS_11Instruction9BinaryOpsEPNS_5ValueESA_RKNS_13SimplifyQueryEjE3$_0EEblS3_"(i64 noundef %0, ptr noundef nonnull align 8 dereferenceable(12) %1) #0 align 2 {
  %3 = alloca %"class.llvm::APInt", align 8
  %4 = inttoptr i64 %0 to ptr
  %.val = load ptr, ptr %4, align 8
  call void @llvm.lifetime.start.p0(i64 16, ptr nonnull %3)
  call void @_ZNK4llvm5APInt4sremERKS0_(ptr dead_on_unwind nonnull writable sret(%"class.llvm::APInt") align 8 %3, ptr noundef nonnull align 8 dereferenceable(12) %1, ptr noundef nonnull align 8 dereferenceable(12) %.val) #18
  %5 = getelementptr inbounds nuw i8, ptr %3, i64 8
  %6 = load i32, ptr %5, align 8
  %7 = icmp ult i32 %6, 65
  br i1 %7, label %_ZNK4llvm5APInt6isZeroEv.exit.i, label %10

_ZNK4llvm5APInt6isZeroEv.exit.i:                  ; preds = %2
  %8 = load i64, ptr %3, align 8
  %9 = icmp eq i64 %8, 0
  br label %"_ZZL11simplifyRemN4llvm11Instruction9BinaryOpsEPNS_5ValueES3_RKNS_13SimplifyQueryEjENK3$_0clERKNS_5APIntE.exit"

10:                                               ; preds = %2
  %11 = call noundef i32 @_ZNK4llvm5APInt25countLeadingZerosSlowCaseEv(ptr noundef nonnull align 8 dereferenceable(12) %3) #19
  %12 = icmp eq i32 %11, %6
  %13 = load ptr, ptr %3, align 8
  %14 = icmp eq ptr %13, null
  br i1 %14, label %"_ZZL11simplifyRemN4llvm11Instruction9BinaryOpsEPNS_5ValueES3_RKNS_13SimplifyQueryEjENK3$_0clERKNS_5APIntE.exit", label %15

15:                                               ; preds = %10
  call void @_ZdaPv(ptr noundef nonnull %13) #20
  br label %"_ZZL11simplifyRemN4llvm11Instruction9BinaryOpsEPNS_5ValueES3_RKNS_13SimplifyQueryEjENK3$_0clERKNS_5APIntE.exit"

"_ZZL11simplifyRemN4llvm11Instruction9BinaryOpsEPNS_5ValueES3_RKNS_13SimplifyQueryEjENK3$_0clERKNS_5APIntE.exit": ; preds = %_ZNK4llvm5APInt6isZeroEv.exit.i, %10, %15
  %.0.i2.i = phi i1 [ %9, %_ZNK4llvm5APInt6isZeroEv.exit.i ], [ %12, %10 ], [ %12, %15 ]
  call void @llvm.lifetime.end.p0(i64 16, ptr nonnull %3)
  ret i1 %.0.i2.i
}